target datalayout = "e-m:e-p270:32:32-p271:32:32-p272:64:64-i64:64-i128:128-f80:128-n8:16:32:64-S128"
target triple = "x86_64-pc-linux-gnu"

%class.Metadata = type { ptr }
%class.OopHandle = type { ptr }
%class.ConstantPool = type <{ %class.Metadata, ptr, ptr, ptr, ptr, ptr, i16, i16, i16, i16, i16, [2 x i8], i32, %union.anon.2, [4 x i8] }>
%union.anon.2 = type { i32 }
%class.ConstantPoolCache = type { i32, ptr, %class.OopHandle, ptr, i64, ptr, ptr, ptr }

; Function Attrs: mustprogress nounwind uwtable
define linkonce_odr hidden noundef i64 @_ZN17ConstantPoolCache8gc_epochEv(ptr noundef nonnull align 8 dereferenceable(64) %0) #1 comdat align 2 {
  %2 = alloca ptr, align 8
  store ptr %0, ptr %2, align 8
  %3 = load ptr, ptr %2, align 8
  %4 = getelementptr inbounds %class.ConstantPoolCache, ptr %3, i32 0, i32 4
  %5 = load i64, ptr %4, align 8
  ret i64 %5
}

; Function Attrs: mustprogress nounwind uwtable
define linkonce_odr hidden noundef ptr @_ZNK12ConstantPool5cacheEv(ptr noundef nonnull align 8 dereferenceable(68) %0) #1 comdat align 2 {
  %2 = alloca ptr, align 8
  store ptr %0, ptr %2, align 8
  %3 = load ptr, ptr %2, align 8
  %4 = getelementptr inbounds %class.ConstantPool, ptr %3, i32 0, i32 2
  %5 = load ptr, ptr %4, align 8
  ret ptr %5
}

; Function Attrs: mustprogress nounwind uwtable
define hidden noundef zeroext i1 @_ZNK12ConstantPool17is_maybe_on_stackEv(ptr noundef nonnull align 8 dereferenceable(68) %0) #1 align 2 {
  %2 = alloca i1, align 1
  %3 = alloca ptr, align 8
  store ptr %0, ptr %3, align 8
  %4 = load ptr, ptr %3, align 8
  %5 = call noundef zeroext i1 @_ZN13Continuations7enabledEv()
  br i1 %5, label %7, label %6

6:                                                ; preds = %1
  store i1 false, ptr %2, align 1
  br label %12

7:                                                ; preds = %1
  %8 = call noundef ptr @_ZNK12ConstantPool5cacheEv(ptr noundef nonnull align 8 dereferenceable(68) %4)
  %9 = call noundef i64 @_ZN17ConstantPoolCache8gc_epochEv(ptr noundef nonnull align 8 dereferenceable(64) %8)
  %10 = call noundef i64 @_ZN9CodeCache35previous_completed_gc_marking_cycleEv()
  %11 = icmp uge i64 %9, %10
  store i1 %11, ptr %2, align 1
  br label %12

12:                                               ; preds = %7, %6
  %13 = load i1, ptr %2, align 1
  ret i1 %13
}