; Function Attrs: mustprogress nounwind uwtable
define hidden noundef zeroext i1 @_ZNK12ConstantPool17is_maybe_on_stackEv(ptr nocapture noundef nonnull readonly align 8 dereferenceable(68) %0) local_unnamed_addr #0 align 2 {
  %2 = tail call noundef zeroext i1 @_ZN13Continuations7enabledEv() #17
  br i1 %2, label %3, label %10

3:                                                ; preds = %1
  %4 = getelementptr inbounds i8, ptr %0, i64 16
  %5 = load ptr, ptr %4, align 8
  %6 = getelementptr inbounds i8, ptr %5, i64 32
  %7 = load i64, ptr %6, align 8
  %8 = tail call noundef i64 @_ZN9CodeCache35previous_completed_gc_marking_cycleEv() #17
  %9 = icmp uge i64 %7, %8
  br label %10

10:                                               ; preds = %1, %3
  %.0 = phi i1 [ %9, %3 ], [ false, %1 ]
  ret i1 %.0
}